target datalayout = "e-m:e-p270:32:32-p271:32:32-p272:64:64-i64:64-i128:128-f80:128-n8:16:32:64-S128"
target triple = "x86_64-unknown-linux-gnu"

%"class.icu_75::Formattable" = type { %"class.icu_75::UObject", %union.anon, ptr, ptr, i32, %"class.icu_75::UnicodeString" }
%"class.icu_75::UObject" = type { ptr }
%union.anon = type { %struct.anon }
%struct.anon = type { ptr, i32 }
%"class.icu_75::UnicodeString" = type { %"class.icu_75::Replaceable", %"union.icu_75::UnicodeString::StackBufferOrFields" }
%"class.icu_75::Replaceable" = type { %"class.icu_75::UObject" }
%"union.icu_75::UnicodeString::StackBufferOrFields" = type { %struct.anon.1, [32 x i8] }
%struct.anon.1 = type { i16, i32, i32, ptr }

; Function Attrs: mustprogress nounwind uwtable
define void @_ZN6icu_7511Formattable10adoptArrayEPS0_i(ptr noundef nonnull align 8 dereferenceable(112) %this, ptr noundef %array, i32 noundef %count) #0 align 2 {
entry:
  %this.addr = alloca ptr, align 8
  %array.addr = alloca ptr, align 8
  %count.addr = alloca i32, align 4
  store ptr %this, ptr %this.addr, align 8
  store ptr %array, ptr %array.addr, align 8
  store i32 %count, ptr %count.addr, align 4
  %this1 = load ptr, ptr %this.addr, align 8
  call void @_ZN6icu_7511Formattable7disposeEv(ptr noundef nonnull align 8 dereferenceable(112) %this1)
  %fType = getelementptr inbounds %"class.icu_75::Formattable", ptr %this1, i32 0, i32 4
  store i32 4, ptr %fType, align 8
  %0 = load ptr, ptr %array.addr, align 8
  %fValue = getelementptr inbounds %"class.icu_75::Formattable", ptr %this1, i32 0, i32 1
  %fArray = getelementptr inbounds %struct.anon, ptr %fValue, i32 0, i32 0
  store ptr %0, ptr %fArray, align 8
  %1 = load i32, ptr %count.addr, align 4
  %fValue2 = getelementptr inbounds %"class.icu_75::Formattable", ptr %this1, i32 0, i32 1
  %fCount = getelementptr inbounds %struct.anon, ptr %fValue2, i32 0, i32 1
  store i32 %1, ptr %fCount, align 8
  ret void
}