; Function Attrs: mustprogress nounwind uwtable
define void @_ZN6icu_7511Formattable10adoptArrayEPS0_i(ptr nocapture noundef nonnull align 8 dereferenceable(112) %this, ptr noundef %array, i32 noundef %count) local_unnamed_addr #0 align 2 {
entry:
  tail call void @_ZN6icu_7511Formattable7disposeEv(ptr noundef nonnull align 8 dereferenceable(112) %this)
  %fType = getelementptr inbounds i8, ptr %this, i64 40
  store i32 4, ptr %fType, align 8
  %fValue = getelementptr inbounds i8, ptr %this, i64 8
  store ptr %array, ptr %fValue, align 8
  %fCount = getelementptr inbounds i8, ptr %this, i64 16
  store i32 %count, ptr %fCount, align 8
  ret void
}